; Function Attrs: mustprogress uwtable
define hidden noundef zeroext i1 @_ZN3dpx6Header5WriteEP9OutStream(ptr noundef nonnull align 4 dereferenceable(2049) %0, ptr noundef %1) local_unnamed_addr #8 align 2 {
  %3 = tail call noundef zeroext i1 @_ZN3dpx6Header8ValidateEv(ptr noundef nonnull align 4 dereferenceable(2049) %0)
  br i1 %3, label %4, label %12

4:                                                ; preds = %2
  %5 = load ptr, ptr %1, align 8, !tbaa !58
  %6 = getelementptr inbounds nuw i8, ptr %5, i64 24
  %7 = load ptr, ptr %6, align 8
  %8 = tail call noundef i64 %7(ptr noundef nonnull align 8 dereferenceable(16) %1, ptr noundef nonnull %0, i64 noundef 2048)
  %9 = icmp eq i64 %8, 2048
  br i1 %9, label %10, label %12

10:                                               ; preds = %4
  %11 = tail call noundef zeroext i1 @_ZN3dpx6Header8ValidateEv(ptr noundef nonnull align 4 dereferenceable(2049) %0)
  br label %12

12:                                               ; preds = %10, %4, %2
  %.0 = phi i1 [ false, %2 ], [ false, %4 ], [ true, %10 ]
  ret i1 %.0
}